target datalayout = "e-m:e-p270:32:32-p271:32:32-p272:64:64-i64:64-i128:128-f80:128-n8:16:32:64-S128"
target triple = "x86_64-pc-linux-gnu"

%"class.pxrInternal_v0_24__pxrReserved__::GfVec2d" = type { [2 x double] }
%"class.pxrInternal_v0_24__pxrReserved__::GfFrustum" = type { %"class.pxrInternal_v0_24__pxrReserved__::GfVec3d", %"class.pxrInternal_v0_24__pxrReserved__::GfRotation", %"class.pxrInternal_v0_24__pxrReserved__::GfRange2d", %"class.pxrInternal_v0_24__pxrReserved__::GfRange1d", double, i32, %"struct.std::atomic" }
%"class.pxrInternal_v0_24__pxrReserved__::GfVec3d" = type { [3 x double] }
%"class.pxrInternal_v0_24__pxrReserved__::GfRotation" = type { %"class.pxrInternal_v0_24__pxrReserved__::GfVec3d", double }
%"class.pxrInternal_v0_24__pxrReserved__::GfRange2d" = type { %"class.pxrInternal_v0_24__pxrReserved__::GfVec2d", %"class.pxrInternal_v0_24__pxrReserved__::GfVec2d" }
%"class.pxrInternal_v0_24__pxrReserved__::GfRange1d" = type { double, double }
%"struct.std::atomic" = type { %"struct.std::__atomic_base" }
%"struct.std::__atomic_base" = type { ptr }

; Function Attrs: mustprogress nounwind uwtable
define linkonce_odr noundef ptr @_ZNSt6atomicIPSt5arrayIN32pxrInternal_v0_24__pxrReserved__7GfPlaneELm6EEE8exchangeES4_St12memory_order(ptr noundef nonnull align 8 dereferenceable(8) %0, ptr noundef %1, i32 noundef %2) #2 comdat align 2 {
  %4 = alloca ptr, align 8
  %5 = alloca ptr, align 8
  %6 = alloca i32, align 4
  %7 = alloca ptr, align 8
  %8 = alloca ptr, align 8
  %9 = alloca ptr, align 8
  %10 = alloca ptr, align 8
  %11 = alloca i32, align 4
  store ptr %0, ptr %9, align 8
  store ptr %1, ptr %10, align 8
  store i32 %2, ptr %11, align 4
  %12 = load ptr, ptr %9, align 8
  %13 = getelementptr inbounds nuw %"struct.std::atomic", ptr %12, i32 0, i32 0
  %14 = load ptr, ptr %10, align 8
  %15 = load i32, ptr %11, align 4
  store ptr %13, ptr %4, align 8
  store ptr %14, ptr %5, align 8
  store i32 %15, ptr %6, align 4
  %16 = load ptr, ptr %4, align 8
  %17 = load i32, ptr %6, align 4
  %18 = load ptr, ptr %5, align 8
  store ptr %18, ptr %7, align 8
  switch i32 %17, label %19 [
    i32 1, label %22
    i32 2, label %22
    i32 3, label %25
    i32 4, label %28
    i32 5, label %31
  ]

19:                                               ; preds = %3
  %20 = load i64, ptr %7, align 8
  %21 = atomicrmw xchg ptr %16, i64 %20 monotonic, align 8
  store i64 %21, ptr %8, align 8
  br label %34

22:                                               ; preds = %3, %3
  %23 = load i64, ptr %7, align 8
  %24 = atomicrmw xchg ptr %16, i64 %23 acquire, align 8
  store i64 %24, ptr %8, align 8
  br label %34

25:                                               ; preds = %3
  %26 = load i64, ptr %7, align 8
  %27 = atomicrmw xchg ptr %16, i64 %26 release, align 8
  store i64 %27, ptr %8, align 8
  br label %34

28:                                               ; preds = %3
  %29 = load i64, ptr %7, align 8
  %30 = atomicrmw xchg ptr %16, i64 %29 acq_rel, align 8
  store i64 %30, ptr %8, align 8
  br label %34

31:                                               ; preds = %3
  %32 = load i64, ptr %7, align 8
  %33 = atomicrmw xchg ptr %16, i64 %32 seq_cst, align 8
  store i64 %33, ptr %8, align 8
  br label %34

34:                                               ; preds = %31, %28, %25, %22, %19
  %35 = load ptr, ptr %8, align 8
  ret ptr %35
}

; Function Attrs: mustprogress nounwind uwtable
define void @_ZN32pxrInternal_v0_24__pxrReserved__9GfFrustum19_DirtyFrustumPlanesEv(ptr noundef nonnull align 8 dereferenceable(128) %0) #2 align 2 {
  %2 = alloca ptr, align 8
  store ptr %0, ptr %2, align 8
  %3 = load ptr, ptr %2, align 8
  %4 = getelementptr inbounds nuw %"class.pxrInternal_v0_24__pxrReserved__::GfFrustum", ptr %3, i32 0, i32 6
  %5 = call noundef ptr @_ZNSt6atomicIPSt5arrayIN32pxrInternal_v0_24__pxrReserved__7GfPlaneELm6EEE8exchangeES4_St12memory_order(ptr noundef nonnull align 8 dereferenceable(8) %4, ptr noundef null, i32 noundef 0) #11
  %6 = icmp eq ptr %5, null
  br i1 %6, label %8, label %7

7:                                                ; preds = %1
  call void @_ZdlPvm(ptr noundef %5, i64 noundef 192) #14
  br label %8

8:                                                ; preds = %7, %1
  ret void
}

; Function Attrs: mustprogress nounwind uwtable
define linkonce_odr void @_ZN32pxrInternal_v0_24__pxrReserved__9GfRange1d6SetMaxEd(ptr noundef nonnull align 8 dereferenceable(16) %0, double noundef %1) #2 comdat align 2 {
  %3 = alloca ptr, align 8
  %4 = alloca double, align 8
  store ptr %0, ptr %3, align 8
  store double %1, ptr %4, align 8
  %5 = load ptr, ptr %3, align 8
  %6 = load double, ptr %4, align 8
  %7 = getelementptr inbounds nuw %"class.pxrInternal_v0_24__pxrReserved__::GfRange1d", ptr %5, i32 0, i32 1
  store double %6, ptr %7, align 8
  ret void
}

; Function Attrs: mustprogress nounwind uwtable
define linkonce_odr void @_ZN32pxrInternal_v0_24__pxrReserved__9GfRange1d6SetMinEd(ptr noundef nonnull align 8 dereferenceable(16) %0, double noundef %1) #2 comdat align 2 {
  %3 = alloca ptr, align 8
  %4 = alloca double, align 8
  store ptr %0, ptr %3, align 8
  store double %1, ptr %4, align 8
  %5 = load ptr, ptr %3, align 8
  %6 = load double, ptr %4, align 8
  %7 = getelementptr inbounds nuw %"class.pxrInternal_v0_24__pxrReserved__::GfRange1d", ptr %5, i32 0, i32 0
  store double %6, ptr %7, align 8
  ret void
}

; Function Attrs: mustprogress nounwind uwtable
define linkonce_odr void @_ZN32pxrInternal_v0_24__pxrReserved__9GfRange2d6SetMaxERKNS_7GfVec2dE(ptr noundef nonnull align 8 dereferenceable(32) %0, ptr noundef nonnull align 8 dereferenceable(16) %1) #2 comdat align 2 {
  %3 = alloca ptr, align 8
  %4 = alloca ptr, align 8
  store ptr %0, ptr %3, align 8
  store ptr %1, ptr %4, align 8
  %5 = load ptr, ptr %3, align 8
  %6 = load ptr, ptr %4, align 8
  %7 = getelementptr inbounds nuw %"class.pxrInternal_v0_24__pxrReserved__::GfRange2d", ptr %5, i32 0, i32 1
  call void @llvm.memcpy.p0.p0.i64(ptr align 8 %7, ptr align 8 %6, i64 16, i1 false)
  ret void
}

; Function Attrs: mustprogress nounwind uwtable
define linkonce_odr void @_ZN32pxrInternal_v0_24__pxrReserved__9GfRange2d6SetMinERKNS_7GfVec2dE(ptr noundef nonnull align 8 dereferenceable(32) %0, ptr noundef nonnull align 8 dereferenceable(16) %1) #2 comdat align 2 {
  %3 = alloca ptr, align 8
  %4 = alloca ptr, align 8
  store ptr %0, ptr %3, align 8
  store ptr %1, ptr %4, align 8
  %5 = load ptr, ptr %3, align 8
  %6 = load ptr, ptr %4, align 8
  %7 = getelementptr inbounds nuw %"class.pxrInternal_v0_24__pxrReserved__::GfRange2d", ptr %5, i32 0, i32 0
  call void @llvm.memcpy.p0.p0.i64(ptr align 8 %7, ptr align 8 %6, i64 16, i1 false)
  ret void
}

; Function Attrs: mustprogress nounwind uwtable
define linkonce_odr void @_ZN32pxrInternal_v0_24__pxrReserved__7GfVec2dC2Edd(ptr noundef nonnull align 8 dereferenceable(16) %0, double noundef %1, double noundef %2) unnamed_addr #2 comdat align 2 {
  %4 = alloca ptr, align 8
  %5 = alloca double, align 8
  %6 = alloca double, align 8
  store ptr %0, ptr %4, align 8
  store double %1, ptr %5, align 8
  store double %2, ptr %6, align 8
  %7 = load ptr, ptr %4, align 8
  %8 = getelementptr inbounds nuw %"class.pxrInternal_v0_24__pxrReserved__::GfVec2d", ptr %7, i32 0, i32 0
  %9 = load double, ptr %5, align 8
  store double %9, ptr %8, align 8
  %10 = getelementptr inbounds double, ptr %8, i64 1
  %11 = load double, ptr %6, align 8
  store double %11, ptr %10, align 8
  ret void
}

; Function Attrs: mustprogress nounwind uwtable
define linkonce_odr noundef double @_ZN32pxrInternal_v0_24__pxrReserved__9GfFrustum22GetReferencePlaneDepthEv() #2 comdat align 2 {
  ret double 1.000000e+00
}

; Function Attrs: mustprogress nounwind uwtable
define linkonce_odr noundef double @_ZN32pxrInternal_v0_24__pxrReserved__18GfDegreesToRadiansEd(double noundef %0) #2 comdat {
  %2 = alloca double, align 8
  store double %0, ptr %2, align 8
  %3 = load double, ptr %2, align 8
  %4 = fmul double %3, 0x3F91DF46A2529D39
  ret double %4
}

; Function Attrs: mustprogress uwtable
define void @_ZN32pxrInternal_v0_24__pxrReserved__9GfFrustum14SetPerspectiveEdbddd(ptr noundef nonnull align 8 dereferenceable(128) %0, double noundef %1, i1 noundef zeroext %2, double noundef %3, double noundef %4, double noundef %5) #0 align 2 {
  %7 = alloca ptr, align 8
  %8 = alloca double, align 8
  %9 = alloca i8, align 1
  %10 = alloca double, align 8
  %11 = alloca double, align 8
  %12 = alloca double, align 8
  %13 = alloca double, align 8
  %14 = alloca double, align 8
  %15 = alloca %"class.pxrInternal_v0_24__pxrReserved__::GfVec2d", align 8
  %16 = alloca %"class.pxrInternal_v0_24__pxrReserved__::GfVec2d", align 8
  store ptr %0, ptr %7, align 8
  store double %1, ptr %8, align 8
  %17 = zext i1 %2 to i8
  store i8 %17, ptr %9, align 1
  store double %3, ptr %10, align 8
  store double %4, ptr %11, align 8
  store double %5, ptr %12, align 8
  %18 = load ptr, ptr %7, align 8
  %19 = getelementptr inbounds nuw %"class.pxrInternal_v0_24__pxrReserved__::GfFrustum", ptr %18, i32 0, i32 5
  store i32 1, ptr %19, align 8
  store double 1.000000e+00, ptr %13, align 8
  store double 1.000000e+00, ptr %14, align 8
  %20 = load double, ptr %10, align 8
  %21 = fcmp oeq double %20, 0.000000e+00
  br i1 %21, label %22, label %23

22:                                               ; preds = %6
  store double 1.000000e+00, ptr %10, align 8
  br label %23

23:                                               ; preds = %22, %6
  %24 = load i8, ptr %9, align 1
  %25 = trunc i8 %24 to i1
  br i1 %25, label %26, label %36

26:                                               ; preds = %23
  %27 = load double, ptr %8, align 8
  %28 = fdiv double %27, 2.000000e+00
  %29 = call noundef double @_ZN32pxrInternal_v0_24__pxrReserved__18GfDegreesToRadiansEd(double noundef %28)
  %30 = call double @tan(double noundef %29) #11
  %31 = call noundef double @_ZN32pxrInternal_v0_24__pxrReserved__9GfFrustum22GetReferencePlaneDepthEv()
  %32 = fmul double %30, %31
  store double %32, ptr %13, align 8
  %33 = load double, ptr %13, align 8
  %34 = load double, ptr %10, align 8
  %35 = fmul double %33, %34
  store double %35, ptr %14, align 8
  br label %46

36:                                               ; preds = %23
  %37 = load double, ptr %8, align 8
  %38 = fdiv double %37, 2.000000e+00
  %39 = call noundef double @_ZN32pxrInternal_v0_24__pxrReserved__18GfDegreesToRadiansEd(double noundef %38)
  %40 = call double @tan(double noundef %39) #11
  %41 = call noundef double @_ZN32pxrInternal_v0_24__pxrReserved__9GfFrustum22GetReferencePlaneDepthEv()
  %42 = fmul double %40, %41
  store double %42, ptr %14, align 8
  %43 = load double, ptr %14, align 8
  %44 = load double, ptr %10, align 8
  %45 = fdiv double %43, %44
  store double %45, ptr %13, align 8
  br label %46

46:                                               ; preds = %36, %26
  %47 = getelementptr inbounds nuw %"class.pxrInternal_v0_24__pxrReserved__::GfFrustum", ptr %18, i32 0, i32 2
  %48 = load double, ptr %14, align 8
  %49 = fneg double %48
  %50 = load double, ptr %13, align 8
  %51 = fneg double %50
  call void @_ZN32pxrInternal_v0_24__pxrReserved__7GfVec2dC2Edd(ptr noundef nonnull align 8 dereferenceable(16) %15, double noundef %49, double noundef %51)
  call void @_ZN32pxrInternal_v0_24__pxrReserved__9GfRange2d6SetMinERKNS_7GfVec2dE(ptr noundef nonnull align 8 dereferenceable(32) %47, ptr noundef nonnull align 8 dereferenceable(16) %15)
  %52 = getelementptr inbounds nuw %"class.pxrInternal_v0_24__pxrReserved__::GfFrustum", ptr %18, i32 0, i32 2
  %53 = load double, ptr %14, align 8
  %54 = load double, ptr %13, align 8
  call void @_ZN32pxrInternal_v0_24__pxrReserved__7GfVec2dC2Edd(ptr noundef nonnull align 8 dereferenceable(16) %16, double noundef %53, double noundef %54)
  call void @_ZN32pxrInternal_v0_24__pxrReserved__9GfRange2d6SetMaxERKNS_7GfVec2dE(ptr noundef nonnull align 8 dereferenceable(32) %52, ptr noundef nonnull align 8 dereferenceable(16) %16)
  %55 = getelementptr inbounds nuw %"class.pxrInternal_v0_24__pxrReserved__::GfFrustum", ptr %18, i32 0, i32 3
  %56 = load double, ptr %11, align 8
  call void @_ZN32pxrInternal_v0_24__pxrReserved__9GfRange1d6SetMinEd(ptr noundef nonnull align 8 dereferenceable(16) %55, double noundef %56)
  %57 = getelementptr inbounds nuw %"class.pxrInternal_v0_24__pxrReserved__::GfFrustum", ptr %18, i32 0, i32 3
  %58 = load double, ptr %12, align 8
  call void @_ZN32pxrInternal_v0_24__pxrReserved__9GfRange1d6SetMaxEd(ptr noundef nonnull align 8 dereferenceable(16) %57, double noundef %58)
  call void @_ZN32pxrInternal_v0_24__pxrReserved__9GfFrustum19_DirtyFrustumPlanesEv(ptr noundef nonnull align 8 dereferenceable(128) %18)
  ret void
}