; Function Attrs: mustprogress nounwind uwtable
define void @_ZN32pxrInternal_v0_24__pxrReserved__9GfFrustum14SetPerspectiveEdbddd(ptr nocapture noundef nonnull align 8 dereferenceable(128) %0, double noundef %1, i1 noundef zeroext %2, double noundef %3, double noundef %4, double noundef %5) local_unnamed_addr #4 align 2 {
  %7 = getelementptr inbounds nuw i8, ptr %0, i64 112
  store i32 1, ptr %7, align 8
  %8 = fcmp oeq double %3, 0.000000e+00
  %.015 = select i1 %8, double 1.000000e+00, double %3
  %9 = fmul double %1, 5.000000e-01
  %10 = fmul double %9, 0x3F91DF46A2529D39
  %11 = tail call double @tan(double noundef %10) #24
  %12 = fmul double %.015, %11
  %13 = fdiv double %11, %.015
  %.014 = select i1 %2, double %11, double %13
  %.0 = select i1 %2, double %12, double %11
  %14 = getelementptr inbounds nuw i8, ptr %0, i64 56
  %15 = fneg double %.0
  %16 = fneg double %.014
  store double %15, ptr %14, align 8
  %.sroa.218.0..sroa_idx = getelementptr inbounds i8, ptr %0, i64 64
  store double %16, ptr %.sroa.218.0..sroa_idx, align 8
  %17 = getelementptr inbounds i8, ptr %0, i64 72
  store double %.0, ptr %17, align 8
  %.sroa.2.0..sroa_idx = getelementptr inbounds i8, ptr %0, i64 80
  store double %.014, ptr %.sroa.2.0..sroa_idx, align 8
  %18 = getelementptr inbounds nuw i8, ptr %0, i64 88
  store double %4, ptr %18, align 8
  %19 = getelementptr inbounds i8, ptr %0, i64 96
  store double %5, ptr %19, align 8
  %20 = getelementptr inbounds nuw i8, ptr %0, i64 120
  %21 = atomicrmw xchg ptr %20, i64 0 monotonic, align 8
  %22 = icmp eq i64 %21, 0
  br i1 %22, label %_ZN32pxrInternal_v0_24__pxrReserved__9GfFrustum19_DirtyFrustumPlanesEv.exit, label %23

23:                                               ; preds = %6
  %.0.i.i = inttoptr i64 %21 to ptr
  tail call void @_ZdlPvm(ptr noundef nonnull %.0.i.i, i64 noundef 192) #25
  br label %_ZN32pxrInternal_v0_24__pxrReserved__9GfFrustum19_DirtyFrustumPlanesEv.exit

_ZN32pxrInternal_v0_24__pxrReserved__9GfFrustum19_DirtyFrustumPlanesEv.exit: ; preds = %6, %23
  ret void
}